target datalayout = "e-m:e-p270:32:32-p271:32:32-p272:64:64-i64:64-i128:128-f80:128-n8:16:32:64-S128"
target triple = "x86_64-pc-linux-gnu"

%struct.ItemPointerData = type { %struct.BlockIdData, i16 }
%struct.BlockIdData = type { i16, i16 }
%struct.ScanKeyData = type { i32, i16, i16, i32, i32, %struct.FmgrInfo, i64 }
%struct.FmgrInfo = type { ptr, i32, i16, i8, i8, i8, ptr, ptr, ptr }
%struct.FormData_pg_depend = type { i32, i32, i32, i32, i32, i32, i8 }
%struct.HeapTupleData = type { i32, %struct.ItemPointerData, i32, ptr }
%struct.HeapTupleHeaderData = type { %union.anon, %struct.ItemPointerData, i16, i16, i8, [0 x i8] }
%union.anon = type { %struct.HeapTupleFields }
%struct.HeapTupleFields = type { i32, i32, %union.anon.0 }
%union.anon.0 = type { i32 }

; Function Attrs: inlinehint nounwind uwtable
define internal ptr @GETSTRUCT(ptr noundef %0) #3 {
  %2 = alloca ptr, align 8
  store ptr %0, ptr %2, align 8
  %3 = load ptr, ptr %2, align 8
  %4 = getelementptr inbounds nuw %struct.HeapTupleData, ptr %3, i32 0, i32 3
  %5 = load ptr, ptr %4, align 8
  %6 = load ptr, ptr %2, align 8
  %7 = getelementptr inbounds nuw %struct.HeapTupleData, ptr %6, i32 0, i32 3
  %8 = load ptr, ptr %7, align 8
  %9 = getelementptr inbounds nuw %struct.HeapTupleHeaderData, ptr %8, i32 0, i32 4
  %10 = load i8, ptr %9, align 2
  %11 = zext i8 %10 to i32
  %12 = sext i32 %11 to i64
  %13 = getelementptr inbounds i8, ptr %5, i64 %12
  ret ptr %13
}

; Function Attrs: inlinehint nounwind uwtable
define internal i64 @Int32GetDatum(i32 noundef %0) #3 {
  %2 = alloca i32, align 4
  store i32 %0, ptr %2, align 4
  %3 = load i32, ptr %2, align 4
  %4 = sext i32 %3 to i64
  ret i64 %4
}

; Function Attrs: inlinehint nounwind uwtable
define internal i64 @ObjectIdGetDatum(i32 noundef %0) #3 {
  %2 = alloca i32, align 4
  store i32 %0, ptr %2, align 4
  %3 = load i32, ptr %2, align 4
  %4 = zext i32 %3 to i64
  ret i64 %4
}

; Function Attrs: nounwind uwtable
define dso_local ptr @get_index_ref_constraints(i32 noundef %0) #0 {
  %2 = alloca i32, align 4
  %3 = alloca ptr, align 8
  %4 = alloca ptr, align 8
  %5 = alloca [3 x %struct.ScanKeyData], align 16
  %6 = alloca ptr, align 8
  %7 = alloca ptr, align 8
  %8 = alloca ptr, align 8
  store i32 %0, ptr %2, align 4
  call void @llvm.lifetime.start.p0(i64 8, ptr %3) #6
  store ptr null, ptr %3, align 8
  call void @llvm.lifetime.start.p0(i64 8, ptr %4) #6
  call void @llvm.lifetime.start.p0(i64 216, ptr %5) #6
  call void @llvm.lifetime.start.p0(i64 8, ptr %6) #6
  call void @llvm.lifetime.start.p0(i64 8, ptr %7) #6
  %9 = call ptr @table_open(i32 noundef 2608, i32 noundef 1)
  store ptr %9, ptr %4, align 8
  %10 = getelementptr inbounds [3 x %struct.ScanKeyData], ptr %5, i64 0, i64 0
  %11 = call i64 @ObjectIdGetDatum(i32 noundef 1259)
  call void @ScanKeyInit(ptr noundef %10, i16 noundef signext 4, i16 noundef zeroext 3, i32 noundef 184, i64 noundef %11)
  %12 = getelementptr inbounds [3 x %struct.ScanKeyData], ptr %5, i64 0, i64 1
  %13 = load i32, ptr %2, align 4
  %14 = call i64 @ObjectIdGetDatum(i32 noundef %13)
  call void @ScanKeyInit(ptr noundef %12, i16 noundef signext 5, i16 noundef zeroext 3, i32 noundef 184, i64 noundef %14)
  %15 = getelementptr inbounds [3 x %struct.ScanKeyData], ptr %5, i64 0, i64 2
  %16 = call i64 @Int32GetDatum(i32 noundef 0)
  call void @ScanKeyInit(ptr noundef %15, i16 noundef signext 6, i16 noundef zeroext 3, i32 noundef 65, i64 noundef %16)
  %17 = load ptr, ptr %4, align 8
  %18 = getelementptr inbounds [3 x %struct.ScanKeyData], ptr %5, i64 0, i64 0
  %19 = call ptr @systable_beginscan(ptr noundef %17, i32 noundef 2674, i1 noundef zeroext true, ptr noundef null, i32 noundef 3, ptr noundef %18)
  store ptr %19, ptr %6, align 8
  br label %20

20:                                               ; preds = %48, %1
  %21 = load ptr, ptr %6, align 8
  %22 = call ptr @systable_getnext(ptr noundef %21)
  store ptr %22, ptr %7, align 8
  %23 = icmp ne ptr %22, null
  br i1 %23, label %24, label %49

24:                                               ; preds = %20
  call void @llvm.lifetime.start.p0(i64 8, ptr %8) #6
  %25 = load ptr, ptr %7, align 8
  %26 = call ptr @GETSTRUCT(ptr noundef %25)
  store ptr %26, ptr %8, align 8
  %27 = load ptr, ptr %8, align 8
  %28 = getelementptr inbounds nuw %struct.FormData_pg_depend, ptr %27, i32 0, i32 0
  %29 = load i32, ptr %28, align 4
  %30 = icmp eq i32 %29, 2606
  br i1 %30, label %31, label %48

31:                                               ; preds = %24
  %32 = load ptr, ptr %8, align 8
  %33 = getelementptr inbounds nuw %struct.FormData_pg_depend, ptr %32, i32 0, i32 2
  %34 = load i32, ptr %33, align 4
  %35 = icmp eq i32 %34, 0
  br i1 %35, label %36, label %48

36:                                               ; preds = %31
  %37 = load ptr, ptr %8, align 8
  %38 = getelementptr inbounds nuw %struct.FormData_pg_depend, ptr %37, i32 0, i32 6
  %39 = load i8, ptr %38, align 4
  %40 = sext i8 %39 to i32
  %41 = icmp eq i32 %40, 110
  br i1 %41, label %42, label %48

42:                                               ; preds = %36
  %43 = load ptr, ptr %3, align 8
  %44 = load ptr, ptr %8, align 8
  %45 = getelementptr inbounds nuw %struct.FormData_pg_depend, ptr %44, i32 0, i32 1
  %46 = load i32, ptr %45, align 4
  %47 = call ptr @lappend_oid(ptr noundef %43, i32 noundef %46)
  store ptr %47, ptr %3, align 8
  br label %48

48:                                               ; preds = %42, %36, %31, %24
  call void @llvm.lifetime.end.p0(i64 8, ptr %8) #6
  br label %20, !llvm.loop !20

49:                                               ; preds = %20
  %50 = load ptr, ptr %6, align 8
  call void @systable_endscan(ptr noundef %50)
  %51 = load ptr, ptr %4, align 8
  call void @table_close(ptr noundef %51, i32 noundef 1)
  %52 = load ptr, ptr %3, align 8
  call void @llvm.lifetime.end.p0(i64 8, ptr %7) #6
  call void @llvm.lifetime.end.p0(i64 8, ptr %6) #6
  call void @llvm.lifetime.end.p0(i64 216, ptr %5) #6
  call void @llvm.lifetime.end.p0(i64 8, ptr %4) #6
  call void @llvm.lifetime.end.p0(i64 8, ptr %3) #6
  ret ptr %52
}