; Function Attrs: nounwind uwtable
define dso_local ptr @get_index_ref_constraints(i32 noundef %0) local_unnamed_addr #0 {
  %2 = alloca [3 x %struct.ScanKeyData], align 16
  call void @llvm.lifetime.start.p0(i64 216, ptr nonnull %2) #7
  %3 = tail call ptr @table_open(i32 noundef 2608, i32 noundef 1) #7
  call void @ScanKeyInit(ptr noundef nonnull %2, i16 noundef signext 4, i16 noundef zeroext 3, i32 noundef 184, i64 noundef 1259) #7
  %4 = getelementptr inbounds nuw i8, ptr %2, i64 72
  %5 = zext i32 %0 to i64
  call void @ScanKeyInit(ptr noundef nonnull %4, i16 noundef signext 5, i16 noundef zeroext 3, i32 noundef 184, i64 noundef %5) #7
  %6 = getelementptr inbounds nuw i8, ptr %2, i64 144
  call void @ScanKeyInit(ptr noundef nonnull %6, i16 noundef signext 6, i16 noundef zeroext 3, i32 noundef 65, i64 noundef 0) #7
  %7 = call ptr @systable_beginscan(ptr noundef %3, i32 noundef 2674, i1 noundef zeroext true, ptr noundef null, i32 noundef 3, ptr noundef nonnull %2) #7
  %8 = call ptr @systable_getnext(ptr noundef %7) #7
  %.not12 = icmp eq ptr %8, null
  br i1 %.not12, label %._crit_edge, label %.lr.ph

.lr.ph:                                           ; preds = %1, %29
  %9 = phi ptr [ %30, %29 ], [ %8, %1 ]
  %.013 = phi ptr [ %.1, %29 ], [ null, %1 ]
  %10 = getelementptr i8, ptr %9, i64 16
  %.val = load ptr, ptr %10, align 8
  %11 = getelementptr inbounds nuw i8, ptr %.val, i64 22
  %12 = load i8, ptr %11, align 2
  %13 = zext i8 %12 to i64
  %14 = getelementptr inbounds nuw i8, ptr %.val, i64 %13
  %15 = load i32, ptr %14, align 4
  %16 = icmp eq i32 %15, 2606
  br i1 %16, label %17, label %29

17:                                               ; preds = %.lr.ph
  %18 = getelementptr inbounds nuw i8, ptr %14, i64 8
  %19 = load i32, ptr %18, align 4
  %20 = icmp eq i32 %19, 0
  br i1 %20, label %21, label %29

21:                                               ; preds = %17
  %22 = getelementptr inbounds nuw i8, ptr %14, i64 24
  %23 = load i8, ptr %22, align 4
  %24 = icmp eq i8 %23, 110
  br i1 %24, label %25, label %29

25:                                               ; preds = %21
  %26 = getelementptr inbounds nuw i8, ptr %14, i64 4
  %27 = load i32, ptr %26, align 4
  %28 = call ptr @lappend_oid(ptr noundef %.013, i32 noundef %27) #7
  br label %29

29:                                               ; preds = %25, %21, %17, %.lr.ph
  %.1 = phi ptr [ %28, %25 ], [ %.013, %21 ], [ %.013, %17 ], [ %.013, %.lr.ph ]
  %30 = call ptr @systable_getnext(ptr noundef %7) #7
  %.not = icmp eq ptr %30, null
  br i1 %.not, label %._crit_edge, label %.lr.ph, !llvm.loop !17

._crit_edge:                                      ; preds = %29, %1
  %.0.lcssa = phi ptr [ null, %1 ], [ %.1, %29 ]
  call void @systable_endscan(ptr noundef %7) #7
  call void @table_close(ptr noundef %3, i32 noundef 1) #7
  call void @llvm.lifetime.end.p0(i64 216, ptr nonnull %2) #7
  ret ptr %.0.lcssa
}